target datalayout = "e-m:e-p270:32:32-p271:32:32-p272:64:64-i64:64-i128:128-f80:128-n8:16:32:64-S128"
target triple = "x86_64-pc-linux-gnu"

%"class.std::vector" = type { %"struct.std::_Vector_base" }
%"struct.std::_Vector_base" = type { %"struct.std::_Vector_base<int, std::allocator<int>>::_Vector_impl" }
%"struct.std::_Vector_base<int, std::allocator<int>>::_Vector_impl" = type { %"struct.std::_Vector_base<int, std::allocator<int>>::_Vector_impl_data" }
%"struct.std::_Vector_base<int, std::allocator<int>>::_Vector_impl_data" = type { ptr, ptr, ptr }

@_ZN8LightGBM7Network13num_machines_E = thread_local global i32 1, align 4
@_ZN8LightGBM7Network12block_start_E = thread_local global %"class.std::vector" zeroinitializer, align 8
@_ZN8LightGBM7Network10block_len_E = thread_local global %"class.std::vector" zeroinitializer, align 8
@.str.13 = private unnamed_addr constant [46 x i8] c"Please initialize the network interface first\00", align 1
@_ZTHN8LightGBM7Network12block_start_E = alias void (), ptr @__tls_init
@_ZTHN8LightGBM7Network10block_len_E = alias void (), ptr @__tls_init

; Function Attrs: mustprogress nounwind uwtable
define linkonce_odr noundef ptr @_ZNKSt6vectorIiSaIiEE11_M_data_ptrIiEEPT_S4_(ptr noundef nonnull align 8 dereferenceable(24) %0, ptr noundef %1) #4 comdat align 2 {
  %3 = alloca ptr, align 8
  %4 = alloca ptr, align 8
  store ptr %0, ptr %3, align 8, !tbaa !30
  store ptr %1, ptr %4, align 8, !tbaa !36
  %5 = load ptr, ptr %4, align 8, !tbaa !36
  ret ptr %5
}

; Function Attrs: mustprogress nounwind uwtable
define linkonce_odr noundef ptr @_ZNSt6vectorIiSaIiEE4dataEv(ptr noundef nonnull align 8 dereferenceable(24) %0) #4 comdat align 2 {
  %2 = alloca ptr, align 8
  store ptr %0, ptr %2, align 8, !tbaa !30
  %3 = load ptr, ptr %2, align 8
  %4 = getelementptr inbounds nuw %"struct.std::_Vector_base", ptr %3, i32 0, i32 0
  %5 = getelementptr inbounds nuw %"struct.std::_Vector_base<int, std::allocator<int>>::_Vector_impl_data", ptr %4, i32 0, i32 0
  %6 = load ptr, ptr %5, align 8, !tbaa !32
  %7 = call noundef ptr @_ZNKSt6vectorIiSaIiEE11_M_data_ptrIiEEPT_S4_(ptr noundef nonnull align 8 dereferenceable(24) %3, ptr noundef %6) #3
  ret ptr %7
}

; Function Attrs: uwtable
define weak_odr hidden noundef ptr @_ZTWN8LightGBM7Network10block_len_E() #11 comdat {
  call void @_ZTHN8LightGBM7Network10block_len_E()
  %1 = call align 8 ptr @llvm.threadlocal.address.p0(ptr align 8 @_ZN8LightGBM7Network10block_len_E)
  ret ptr %1
}

; Function Attrs: mustprogress nounwind uwtable
define linkonce_odr noundef nonnull align 4 dereferenceable(4) ptr @_ZNSt6vectorIiSaIiEEixEm(ptr noundef nonnull align 8 dereferenceable(24) %0, i64 noundef %1) #4 comdat align 2 {
  %3 = alloca ptr, align 8
  %4 = alloca i64, align 8
  store ptr %0, ptr %3, align 8, !tbaa !30
  store i64 %1, ptr %4, align 8, !tbaa !42
  %5 = load ptr, ptr %3, align 8
  %6 = getelementptr inbounds nuw %"struct.std::_Vector_base", ptr %5, i32 0, i32 0
  %7 = getelementptr inbounds nuw %"struct.std::_Vector_base<int, std::allocator<int>>::_Vector_impl_data", ptr %6, i32 0, i32 0
  %8 = load ptr, ptr %7, align 8, !tbaa !32
  %9 = load i64, ptr %4, align 8, !tbaa !42
  %10 = getelementptr inbounds nuw i32, ptr %8, i64 %9
  ret ptr %10
}

; Function Attrs: uwtable
define weak_odr hidden noundef ptr @_ZTWN8LightGBM7Network12block_start_E() #11 comdat {
  call void @_ZTHN8LightGBM7Network12block_start_E()
  %1 = call align 8 ptr @llvm.threadlocal.address.p0(ptr align 8 @_ZN8LightGBM7Network12block_start_E)
  ret ptr %1
}

; Function Attrs: mustprogress uwtable
define void @_ZN8LightGBM7Network9AllgatherEPciS1_(ptr noundef %0, i32 noundef %1, ptr noundef %2) #10 align 2 {
  %4 = alloca ptr, align 8
  %5 = alloca i32, align 4
  %6 = alloca ptr, align 8
  %7 = alloca i32, align 4
  store ptr %0, ptr %4, align 8, !tbaa !65
  store i32 %1, ptr %5, align 4, !tbaa !104
  store ptr %2, ptr %6, align 8, !tbaa !65
  %8 = call align 4 ptr @llvm.threadlocal.address.p0(ptr align 4 @_ZN8LightGBM7Network13num_machines_E)
  %9 = load i32, ptr %8, align 4, !tbaa !104
  %10 = icmp sle i32 %9, 1
  br i1 %10, label %11, label %12

11:                                               ; preds = %3
  call void (ptr, ...) @_ZN8LightGBM3Log5FatalEPKcz(ptr noundef @.str.13)
  br label %61

12:                                               ; preds = %3
  %13 = call ptr @_ZTWN8LightGBM7Network12block_start_E()
  %14 = call noundef nonnull align 4 dereferenceable(4) ptr @_ZNSt6vectorIiSaIiEEixEm(ptr noundef nonnull align 8 dereferenceable(24) %13, i64 noundef 0) #3
  store i32 0, ptr %14, align 4, !tbaa !104
  %15 = load i32, ptr %5, align 4, !tbaa !104
  %16 = call ptr @_ZTWN8LightGBM7Network10block_len_E()
  %17 = call noundef nonnull align 4 dereferenceable(4) ptr @_ZNSt6vectorIiSaIiEEixEm(ptr noundef nonnull align 8 dereferenceable(24) %16, i64 noundef 0) #3
  store i32 %15, ptr %17, align 4, !tbaa !104
  call void @llvm.lifetime.start.p0(i64 4, ptr %7) #3
  store i32 1, ptr %7, align 4, !tbaa !104
  br label %18

18:                                               ; preds = %47, %12
  %19 = load i32, ptr %7, align 4, !tbaa !104
  %20 = call align 4 ptr @llvm.threadlocal.address.p0(ptr align 4 @_ZN8LightGBM7Network13num_machines_E)
  %21 = load i32, ptr %20, align 4, !tbaa !104
  %22 = icmp slt i32 %19, %21
  br i1 %22, label %24, label %23

23:                                               ; preds = %18
  call void @llvm.lifetime.end.p0(i64 4, ptr %7) #3
  br label %50

24:                                               ; preds = %18
  %25 = call ptr @_ZTWN8LightGBM7Network12block_start_E()
  %26 = load i32, ptr %7, align 4, !tbaa !104
  %27 = sub nsw i32 %26, 1
  %28 = sext i32 %27 to i64
  %29 = call noundef nonnull align 4 dereferenceable(4) ptr @_ZNSt6vectorIiSaIiEEixEm(ptr noundef nonnull align 8 dereferenceable(24) %25, i64 noundef %28) #3
  %30 = load i32, ptr %29, align 4, !tbaa !104
  %31 = call ptr @_ZTWN8LightGBM7Network10block_len_E()
  %32 = load i32, ptr %7, align 4, !tbaa !104
  %33 = sub nsw i32 %32, 1
  %34 = sext i32 %33 to i64
  %35 = call noundef nonnull align 4 dereferenceable(4) ptr @_ZNSt6vectorIiSaIiEEixEm(ptr noundef nonnull align 8 dereferenceable(24) %31, i64 noundef %34) #3
  %36 = load i32, ptr %35, align 4, !tbaa !104
  %37 = add nsw i32 %30, %36
  %38 = call ptr @_ZTWN8LightGBM7Network12block_start_E()
  %39 = load i32, ptr %7, align 4, !tbaa !104
  %40 = sext i32 %39 to i64
  %41 = call noundef nonnull align 4 dereferenceable(4) ptr @_ZNSt6vectorIiSaIiEEixEm(ptr noundef nonnull align 8 dereferenceable(24) %38, i64 noundef %40) #3
  store i32 %37, ptr %41, align 4, !tbaa !104
  %42 = load i32, ptr %5, align 4, !tbaa !104
  %43 = call ptr @_ZTWN8LightGBM7Network10block_len_E()
  %44 = load i32, ptr %7, align 4, !tbaa !104
  %45 = sext i32 %44 to i64
  %46 = call noundef nonnull align 4 dereferenceable(4) ptr @_ZNSt6vectorIiSaIiEEixEm(ptr noundef nonnull align 8 dereferenceable(24) %43, i64 noundef %45) #3
  store i32 %42, ptr %46, align 4, !tbaa !104
  br label %47

47:                                               ; preds = %24
  %48 = load i32, ptr %7, align 4, !tbaa !104
  %49 = add nsw i32 %48, 1
  store i32 %49, ptr %7, align 4, !tbaa !104
  br label %18, !llvm.loop !327

50:                                               ; preds = %23
  %51 = load ptr, ptr %4, align 8, !tbaa !65
  %52 = call ptr @_ZTWN8LightGBM7Network12block_start_E()
  %53 = call noundef ptr @_ZNSt6vectorIiSaIiEE4dataEv(ptr noundef nonnull align 8 dereferenceable(24) %52) #3
  %54 = call ptr @_ZTWN8LightGBM7Network10block_len_E()
  %55 = call noundef ptr @_ZNSt6vectorIiSaIiEE4dataEv(ptr noundef nonnull align 8 dereferenceable(24) %54) #3
  %56 = load ptr, ptr %6, align 8, !tbaa !65
  %57 = load i32, ptr %5, align 4, !tbaa !104
  %58 = call align 4 ptr @llvm.threadlocal.address.p0(ptr align 4 @_ZN8LightGBM7Network13num_machines_E)
  %59 = load i32, ptr %58, align 4, !tbaa !104
  %60 = mul nsw i32 %57, %59
  call void @_ZN8LightGBM7Network9AllgatherEPcPKiS3_S1_i(ptr noundef %51, ptr noundef %53, ptr noundef %55, ptr noundef %56, i32 noundef %60)
  br label %61

61:                                               ; preds = %50, %11
  ret void
}