; Function Attrs: uwtable
define void @_ZN8LightGBM7Network9AllgatherEPciS1_(ptr noundef %0, i32 noundef %1, ptr noundef %2) local_unnamed_addr #11 align 2 {
  %4 = tail call align 4 ptr @llvm.threadlocal.address.p0(ptr align 4 @_ZN8LightGBM7Network13num_machines_E)
  %5 = load i32, ptr %4, align 4, !tbaa !69
  %6 = icmp slt i32 %5, 2
  br i1 %6, label %7, label %8

7:                                                ; preds = %3
  tail call void (ptr, ...) @_ZN8LightGBM3Log5FatalEPKcz(ptr noundef nonnull @.str.13)
  br label %34

8:                                                ; preds = %3
  tail call void @_ZTHN8LightGBM7Network12block_start_E()
  %9 = tail call noundef align 8 ptr @llvm.threadlocal.address.p0(ptr align 8 @_ZN8LightGBM7Network12block_start_E)
  %10 = load ptr, ptr %9, align 8, !tbaa !9
  store i32 0, ptr %10, align 4, !tbaa !69
  tail call void @_ZTHN8LightGBM7Network10block_len_E()
  %11 = tail call noundef align 8 ptr @llvm.threadlocal.address.p0(ptr align 8 @_ZN8LightGBM7Network10block_len_E)
  %12 = load ptr, ptr %11, align 8, !tbaa !9
  store i32 %1, ptr %12, align 4, !tbaa !69
  %13 = load i32, ptr %4, align 4, !tbaa !69
  %14 = icmp sgt i32 %13, 1
  br i1 %14, label %.lr.ph, label %._crit_edge

._crit_edge:                                      ; preds = %.lr.ph, %8
  tail call void @_ZTHN8LightGBM7Network12block_start_E()
  %15 = load ptr, ptr %9, align 8, !tbaa !9
  tail call void @_ZTHN8LightGBM7Network10block_len_E()
  %16 = load ptr, ptr %11, align 8, !tbaa !9
  %17 = load i32, ptr %4, align 4, !tbaa !69
  %18 = mul nsw i32 %17, %1
  tail call void @_ZN8LightGBM7Network9AllgatherEPcPKiS3_S1_i(ptr noundef %0, ptr noundef %15, ptr noundef %16, ptr noundef %2, i32 noundef %18)
  br label %34

.lr.ph:                                           ; preds = %8, %.lr.ph
  %indvars.iv = phi i64 [ %indvars.iv.next, %.lr.ph ], [ 1, %8 ]
  tail call void @_ZTHN8LightGBM7Network12block_start_E()
  %19 = add nsw i64 %indvars.iv, -1
  %20 = load ptr, ptr %9, align 8, !tbaa !9
  %21 = getelementptr inbounds nuw i32, ptr %20, i64 %19
  %22 = load i32, ptr %21, align 4, !tbaa !69
  tail call void @_ZTHN8LightGBM7Network10block_len_E()
  %23 = load ptr, ptr %11, align 8, !tbaa !9
  %24 = getelementptr inbounds nuw i32, ptr %23, i64 %19
  %25 = load i32, ptr %24, align 4, !tbaa !69
  %26 = add nsw i32 %25, %22
  tail call void @_ZTHN8LightGBM7Network12block_start_E()
  %27 = load ptr, ptr %9, align 8, !tbaa !9
  %28 = getelementptr inbounds nuw i32, ptr %27, i64 %indvars.iv
  store i32 %26, ptr %28, align 4, !tbaa !69
  tail call void @_ZTHN8LightGBM7Network10block_len_E()
  %29 = load ptr, ptr %11, align 8, !tbaa !9
  %30 = getelementptr inbounds nuw i32, ptr %29, i64 %indvars.iv
  store i32 %1, ptr %30, align 4, !tbaa !69
  %indvars.iv.next = add nuw nsw i64 %indvars.iv, 1
  %31 = load i32, ptr %4, align 4, !tbaa !69
  %32 = sext i32 %31 to i64
  %33 = icmp slt i64 %indvars.iv.next, %32
  br i1 %33, label %.lr.ph, label %._crit_edge, !llvm.loop !136

34:                                               ; preds = %._crit_edge, %7
  ret void
}